; Function Attrs: nounwind uwtable
define internal fastcc range(i32 0, -1) i32 @Gia_ManAppendAnd(ptr noundef %0, i32 noundef %1, i32 noundef %2) unnamed_addr #0 {
  %4 = tail call fastcc ptr @Gia_ManAppendObj(ptr noundef %0)
  %5 = icmp slt i32 %1, %2
  %6 = getelementptr i8, ptr %0, i64 32
  %.val = load ptr, ptr %6, align 8
  %7 = ptrtoint ptr %4 to i64
  %8 = ptrtoint ptr %.val to i64
  %9 = sub i64 %7, %8
  %10 = sdiv exact i64 %9, 12
  %11 = trunc i64 %10 to i32
  %12 = lshr i32 %1, 1
  %13 = sub i32 %11, %12
  %14 = load i64, ptr %4, align 4
  %15 = and i32 %13, 536870911
  %16 = zext nneg i32 %15 to i64
  br i1 %5, label %17, label %39

17:                                               ; preds = %3
  %18 = and i64 %14, -1073741824
  %19 = shl i32 %1, 29
  %20 = and i32 %19, 536870912
  %21 = zext nneg i32 %20 to i64
  %22 = or disjoint i64 %18, %21
  %23 = or disjoint i64 %22, %16
  store i64 %23, ptr %4, align 4
  %.val72 = load ptr, ptr %6, align 8
  %24 = ptrtoint ptr %.val72 to i64
  %25 = sub i64 %7, %24
  %26 = sdiv exact i64 %25, 12
  %27 = trunc i64 %26 to i32
  %28 = lshr i32 %2, 1
  %29 = sub i32 %27, %28
  %30 = and i32 %29, 536870911
  %31 = zext nneg i32 %30 to i64
  %32 = shl nuw nsw i64 %31, 32
  %33 = and i64 %23, -4611686014132420609
  %34 = or disjoint i64 %32, %33
  %35 = and i32 %2, 1
  %36 = zext nneg i32 %35 to i64
  %37 = shl nuw nsw i64 %36, 61
  %38 = or disjoint i64 %34, %37
  br label %61

39:                                               ; preds = %3
  %40 = shl nuw nsw i64 %16, 32
  %41 = and i64 %14, -4611686014132420609
  %42 = or disjoint i64 %40, %41
  %43 = and i32 %1, 1
  %44 = zext nneg i32 %43 to i64
  %45 = shl nuw nsw i64 %44, 61
  %46 = or disjoint i64 %42, %45
  store i64 %46, ptr %4, align 4
  %.val74 = load ptr, ptr %6, align 8
  %47 = ptrtoint ptr %.val74 to i64
  %48 = sub i64 %7, %47
  %49 = sdiv exact i64 %48, 12
  %50 = trunc i64 %49 to i32
  %51 = lshr i32 %2, 1
  %52 = sub i32 %50, %51
  %53 = and i32 %52, 536870911
  %54 = zext nneg i32 %53 to i64
  %55 = and i64 %46, -1073741824
  %56 = or disjoint i64 %55, %54
  %57 = shl i32 %2, 29
  %58 = and i32 %57, 536870912
  %59 = zext nneg i32 %58 to i64
  %60 = or disjoint i64 %56, %59
  br label %61

61:                                               ; preds = %39, %17
  %storemerge = phi i64 [ %38, %17 ], [ %60, %39 ]
  store i64 %storemerge, ptr %4, align 4
  %62 = getelementptr inbounds nuw i8, ptr %0, i64 232
  %63 = load ptr, ptr %62, align 8
  %.not = icmp eq ptr %63, null
  br i1 %.not, label %73, label %64

64:                                               ; preds = %61
  %65 = and i64 %storemerge, 536870911
  %66 = sub nsw i64 0, %65
  %67 = getelementptr inbounds %struct.Gia_Obj_t_, ptr %4, i64 %66
  tail call void @Gia_ObjAddFanout(ptr noundef nonnull %0, ptr noundef nonnull %67, ptr noundef nonnull %4) #15
  %68 = load i64, ptr %4, align 4
  %69 = lshr i64 %68, 32
  %70 = and i64 %69, 536870911
  %71 = sub nsw i64 0, %70
  %72 = getelementptr inbounds %struct.Gia_Obj_t_, ptr %4, i64 %71
  tail call void @Gia_ObjAddFanout(ptr noundef nonnull %0, ptr noundef nonnull %72, ptr noundef nonnull %4) #15
  br label %73

73:                                               ; preds = %64, %61
  %74 = getelementptr inbounds nuw i8, ptr %0, i64 116
  %75 = load i32, ptr %74, align 4
  %.not65 = icmp eq i32 %75, 0
  br i1 %.not65, label %100, label %76

76:                                               ; preds = %73
  %77 = load i64, ptr %4, align 4
  %78 = and i64 %77, 536870911
  %79 = sub nsw i64 0, %78
  %80 = getelementptr inbounds %struct.Gia_Obj_t_, ptr %4, i64 %79
  %81 = lshr i64 %77, 32
  %82 = and i64 %81, 536870911
  %83 = sub nsw i64 0, %82
  %84 = getelementptr inbounds %struct.Gia_Obj_t_, ptr %4, i64 %83
  %85 = load i64, ptr %80, align 4
  %86 = and i64 %85, 1073741824
  %.not66 = icmp eq i64 %86, 0
  %storemerge67.v = select i1 %.not66, i64 1073741824, i64 4611686018427387904
  %storemerge67 = or i64 %storemerge67.v, %85
  store i64 %storemerge67, ptr %80, align 4
  %87 = load i64, ptr %84, align 4
  %88 = and i64 %87, 1073741824
  %.not68 = icmp eq i64 %88, 0
  %storemerge69.v = select i1 %.not68, i64 1073741824, i64 4611686018427387904
  %storemerge69 = or i64 %storemerge69.v, %87
  store i64 %storemerge69, ptr %84, align 4
  %.val81 = load i64, ptr %80, align 4
  %89 = lshr i64 %.val81, 63
  %.val77 = load i64, ptr %4, align 4
  %90 = lshr i64 %.val77, 29
  %91 = xor i64 %90, %89
  %92 = lshr i64 %87, 63
  %93 = lshr i64 %.val77, 61
  %94 = and i64 %93, 1
  %95 = xor i64 %94, %92
  %96 = and i64 %95, %91
  %97 = shl nuw i64 %96, 63
  %98 = and i64 %.val77, 9223372036854775807
  %99 = or disjoint i64 %97, %98
  store i64 %99, ptr %4, align 4
  br label %100

100:                                              ; preds = %76, %73
  %101 = getelementptr inbounds nuw i8, ptr %0, i64 808
  %102 = load i32, ptr %101, align 8
  %.not70 = icmp eq i32 %102, 0
  br i1 %.not70, label %129, label %103

103:                                              ; preds = %100
  %104 = load i64, ptr %4, align 4
  %105 = and i64 %104, 536870911
  %106 = sub nsw i64 0, %105
  %107 = getelementptr inbounds %struct.Gia_Obj_t_, ptr %4, i64 %106
  %108 = lshr i64 %104, 32
  %109 = and i64 %108, 536870911
  %110 = sub nsw i64 0, %109
  %111 = getelementptr inbounds %struct.Gia_Obj_t_, ptr %4, i64 %110
  %.val83 = load i64, ptr %107, align 4
  %112 = lshr i64 %.val83, 63
  %113 = lshr i64 %104, 29
  %114 = xor i64 %112, %113
  %.val84 = load i64, ptr %111, align 4
  %115 = lshr i64 %.val84, 63
  %116 = lshr i64 %104, 61
  %117 = and i64 %116, 1
  %118 = xor i64 %115, %117
  %119 = and i64 %118, %114
  %120 = shl nuw i64 %119, 63
  %121 = and i64 %104, 9223372036854775807
  %122 = or disjoint i64 %120, %121
  store i64 %122, ptr %4, align 4
  %123 = getelementptr i8, ptr %0, i64 32
  %.val75 = load ptr, ptr %123, align 8
  %124 = ptrtoint ptr %4 to i64
  %125 = ptrtoint ptr %.val75 to i64
  %126 = sub i64 %124, %125
  %127 = sdiv exact i64 %126, 12
  %128 = trunc i64 %127 to i32
  tail call void @Gia_ManBuiltInSimPerform(ptr noundef nonnull %0, i32 noundef %128) #15
  br label %129

129:                                              ; preds = %103, %100
  %130 = getelementptr inbounds nuw i8, ptr %0, i64 984
  %131 = load ptr, ptr %130, align 8
  %.not71 = icmp eq ptr %131, null
  br i1 %.not71, label %133, label %132

132:                                              ; preds = %129
  tail call void @Gia_ManQuantSetSuppAnd(ptr noundef nonnull %0, ptr noundef nonnull %4) #15
  br label %133

133:                                              ; preds = %132, %129
  %134 = getelementptr i8, ptr %0, i64 32
  %.val76 = load ptr, ptr %134, align 8
  %135 = ptrtoint ptr %4 to i64
  %136 = ptrtoint ptr %.val76 to i64
  %137 = sub i64 %135, %136
  %138 = sdiv exact i64 %137, 12
  %139 = trunc i64 %138 to i32
  %140 = shl i32 %139, 1
  ret i32 %140
}